target datalayout = "e-m:e-p270:32:32-p271:32:32-p272:64:64-i64:64-i128:128-f80:128-n8:16:32:64-S128"
target triple = "x86_64-pc-linux-gnu"

%struct._generic_SUNAdaptController = type { ptr, ptr, ptr }
%struct._mriStepControlContent = type { ptr, ptr, ptr }
%struct.ARKodeMRIStepMemRec = type { ptr, ptr, i32, i32, i32, i32, i32, ptr, ptr, i32, i32, i32, ptr, i32, i32, i32, i32, i32, ptr, ptr, ptr, ptr, ptr, ptr, ptr, i32, ptr, i32, ptr, double, double, double, double, i32, double, double, double, double, double, double, i32, i64, i32, i32, i32, ptr, ptr, ptr, ptr, ptr, ptr, ptr, ptr, ptr, double, double, double, i64, i64, i64, i64, i64, i64, i32, i32, i32, double, double, ptr, i32, ptr, ptr }

; Function Attrs: nounwind uwtable
define i32 @SUNAdaptController_UpdateH_MRIStep(ptr noundef %0, double noundef %1, double noundef %2) #0 {
  %4 = alloca i32, align 4
  %5 = alloca ptr, align 8
  %6 = alloca double, align 8
  %7 = alloca double, align 8
  %8 = alloca ptr, align 8
  %9 = alloca ptr, align 8
  %10 = alloca i32, align 4
  %11 = alloca i32, align 4
  store ptr %0, ptr %5, align 8, !tbaa !8
  store double %1, ptr %6, align 8, !tbaa !33
  store double %2, ptr %7, align 8, !tbaa !33
  call void @llvm.lifetime.start.p0(i64 8, ptr %8) #4
  %12 = load ptr, ptr %5, align 8, !tbaa !8
  %13 = getelementptr inbounds nuw %struct._generic_SUNAdaptController, ptr %12, i32 0, i32 0
  %14 = load ptr, ptr %13, align 8, !tbaa !32
  %15 = getelementptr inbounds nuw %struct._mriStepControlContent, ptr %14, i32 0, i32 0
  %16 = load ptr, ptr %15, align 8, !tbaa !26
  store ptr %16, ptr %8, align 8, !tbaa !3
  call void @llvm.lifetime.start.p0(i64 8, ptr %9) #4
  %17 = load ptr, ptr %5, align 8, !tbaa !8
  %18 = getelementptr inbounds nuw %struct._generic_SUNAdaptController, ptr %17, i32 0, i32 0
  %19 = load ptr, ptr %18, align 8, !tbaa !32
  %20 = getelementptr inbounds nuw %struct._mriStepControlContent, ptr %19, i32 0, i32 1
  %21 = load ptr, ptr %20, align 8, !tbaa !30
  store ptr %21, ptr %9, align 8, !tbaa !29
  %22 = load ptr, ptr %8, align 8, !tbaa !3
  %23 = icmp eq ptr %22, null
  br i1 %23, label %27, label %24

24:                                               ; preds = %3
  %25 = load ptr, ptr %9, align 8, !tbaa !29
  %26 = icmp eq ptr %25, null
  br i1 %26, label %27, label %28

27:                                               ; preds = %24, %3
  store i32 -9989, ptr %4, align 4
  store i32 1, ptr %10, align 4
  br label %54

28:                                               ; preds = %24
  call void @llvm.lifetime.start.p0(i64 4, ptr %11) #4
  %29 = load ptr, ptr %5, align 8, !tbaa !8
  %30 = getelementptr inbounds nuw %struct._generic_SUNAdaptController, ptr %29, i32 0, i32 0
  %31 = load ptr, ptr %30, align 8, !tbaa !32
  %32 = getelementptr inbounds nuw %struct._mriStepControlContent, ptr %31, i32 0, i32 2
  %33 = load ptr, ptr %32, align 8, !tbaa !31
  %34 = load double, ptr %6, align 8, !tbaa !33
  %35 = load ptr, ptr %9, align 8, !tbaa !29
  %36 = getelementptr inbounds nuw %struct.ARKodeMRIStepMemRec, ptr %35, i32 0, i32 54
  %37 = load double, ptr %36, align 8, !tbaa !37
  %38 = load double, ptr %7, align 8, !tbaa !33
  %39 = load ptr, ptr %9, align 8, !tbaa !29
  %40 = getelementptr inbounds nuw %struct.ARKodeMRIStepMemRec, ptr %39, i32 0, i32 55
  %41 = load double, ptr %40, align 8, !tbaa !46
  %42 = call i32 @SUNAdaptController_UpdateMRIHTol(ptr noundef %33, double noundef %34, double noundef %37, double noundef %38, double noundef %41)
  store i32 %42, ptr %11, align 4, !tbaa !10
  %43 = load i32, ptr %11, align 4, !tbaa !10
  %44 = icmp ne i32 %43, 0
  br i1 %44, label %45, label %47

45:                                               ; preds = %28
  %46 = load i32, ptr %11, align 4, !tbaa !10
  store i32 %46, ptr %4, align 4
  store i32 1, ptr %10, align 4
  br label %53

47:                                               ; preds = %28
  %48 = load ptr, ptr %9, align 8, !tbaa !29
  %49 = getelementptr inbounds nuw %struct.ARKodeMRIStepMemRec, ptr %48, i32 0, i32 56
  %50 = load double, ptr %49, align 8, !tbaa !49
  %51 = load ptr, ptr %9, align 8, !tbaa !29
  %52 = getelementptr inbounds nuw %struct.ARKodeMRIStepMemRec, ptr %51, i32 0, i32 54
  store double %50, ptr %52, align 8, !tbaa !37
  store i32 0, ptr %4, align 4
  store i32 1, ptr %10, align 4
  br label %53

53:                                               ; preds = %47, %45
  call void @llvm.lifetime.end.p0(i64 4, ptr %11) #4
  br label %54

54:                                               ; preds = %53, %27
  call void @llvm.lifetime.end.p0(i64 8, ptr %9) #4
  call void @llvm.lifetime.end.p0(i64 8, ptr %8) #4
  %55 = load i32, ptr %4, align 4
  ret i32 %55
}