; Function Attrs: nounwind uwtable
define i32 @SUNAdaptController_UpdateH_MRIStep(ptr noundef readonly captures(none) %0, double noundef %1, double noundef %2) #0 {
  %4 = load ptr, ptr %0, align 8, !tbaa !26
  %5 = load ptr, ptr %4, align 8, !tbaa !18
  %6 = getelementptr inbounds nuw i8, ptr %4, i64 8
  %7 = load ptr, ptr %6, align 8, !tbaa !24
  %8 = icmp eq ptr %5, null
  %9 = icmp eq ptr %7, null
  %or.cond = select i1 %8, i1 true, i1 %9
  br i1 %or.cond, label %21, label %10

10:                                               ; preds = %3
  %11 = getelementptr inbounds nuw i8, ptr %4, i64 16
  %12 = load ptr, ptr %11, align 8, !tbaa !25
  %13 = getelementptr inbounds nuw i8, ptr %7, i64 384
  %14 = load double, ptr %13, align 8, !tbaa !27
  %15 = getelementptr inbounds nuw i8, ptr %7, i64 392
  %16 = load double, ptr %15, align 8, !tbaa !39
  %17 = tail call i32 @SUNAdaptController_UpdateMRIHTol(ptr noundef %12, double noundef %1, double noundef %14, double noundef %2, double noundef %16) #4
  %.not = icmp eq i32 %17, 0
  br i1 %.not, label %18, label %21

18:                                               ; preds = %10
  %19 = getelementptr inbounds nuw i8, ptr %7, i64 400
  %20 = load double, ptr %19, align 8, !tbaa !40
  store double %20, ptr %13, align 8, !tbaa !27
  br label %21

21:                                               ; preds = %18, %10, %3
  %.0 = phi i32 [ -9989, %3 ], [ 0, %18 ], [ %17, %10 ]
  ret i32 %.0
}